target datalayout = "e-m:e-p270:32:32-p271:32:32-p272:64:64-i64:64-i128:128-f80:128-n8:16:32:64-S128"
target triple = "x86_64-pc-linux-gnu"

%struct.sock_gres = type { ptr, ptr, i64, ptr, ptr, ptr, i64, i32, i64, i64, i8 }
%struct.gres_state = type { i32, i32, ptr, ptr, i32 }
%struct.gres_job_state = type { i32, ptr, i16, i16, i64, i64, i64, i64, i64, i16, i16, i64, i32, ptr, ptr, ptr, ptr, i32, i64, i32, ptr, ptr, ptr, ptr, ptr, ptr }

; Function Attrs: nounwind uwtable
define dso_local zeroext i1 @gres_sched_sufficient(ptr noundef %0, ptr noundef %1) #0 {
  %3 = alloca i1, align 1
  %4 = alloca ptr, align 8
  %5 = alloca ptr, align 8
  %6 = alloca ptr, align 8
  %7 = alloca ptr, align 8
  %8 = alloca ptr, align 8
  %9 = alloca ptr, align 8
  %10 = alloca i8, align 1
  %11 = alloca i32, align 4
  store ptr %0, ptr %4, align 8
  store ptr %1, ptr %5, align 8
  call void @llvm.lifetime.start.p0(i64 8, ptr %6) #3
  call void @llvm.lifetime.start.p0(i64 8, ptr %7) #3
  call void @llvm.lifetime.start.p0(i64 8, ptr %8) #3
  call void @llvm.lifetime.start.p0(i64 8, ptr %9) #3
  call void @llvm.lifetime.start.p0(i64 1, ptr %10) #3
  store i8 1, ptr %10, align 1
  %12 = load ptr, ptr %4, align 8
  %13 = icmp ne ptr %12, null
  br i1 %13, label %15, label %14

14:                                               ; preds = %2
  store i1 true, ptr %3, align 1
  store i32 1, ptr %11, align 4
  br label %69

15:                                               ; preds = %2
  %16 = load ptr, ptr %5, align 8
  %17 = icmp ne ptr %16, null
  br i1 %17, label %19, label %18

18:                                               ; preds = %15
  store i1 false, ptr %3, align 1
  store i32 1, ptr %11, align 4
  br label %69

19:                                               ; preds = %15
  %20 = load ptr, ptr %4, align 8
  %21 = call ptr @slurm_list_iterator_create(ptr noundef %20)
  store ptr %21, ptr %6, align 8
  br label %22

22:                                               ; preds = %64, %43, %34, %19
  %23 = load ptr, ptr %6, align 8
  %24 = call ptr @slurm_list_next(ptr noundef %23)
  store ptr %24, ptr %7, align 8
  %25 = icmp ne ptr %24, null
  br i1 %25, label %26, label %65

26:                                               ; preds = %22
  %27 = load ptr, ptr %7, align 8
  %28 = getelementptr inbounds nuw %struct.gres_state, ptr %27, i32 0, i32 2
  %29 = load ptr, ptr %28, align 8
  store ptr %29, ptr %8, align 8
  %30 = load ptr, ptr %8, align 8
  %31 = getelementptr inbounds nuw %struct.gres_job_state, ptr %30, i32 0, i32 4
  %32 = load i64, ptr %31, align 8
  %33 = icmp ne i64 %32, 0
  br i1 %33, label %35, label %34

34:                                               ; preds = %26
  br label %22, !llvm.loop !20

35:                                               ; preds = %26
  %36 = load ptr, ptr %8, align 8
  %37 = getelementptr inbounds nuw %struct.gres_job_state, ptr %36, i32 0, i32 18
  %38 = load i64, ptr %37, align 8
  %39 = load ptr, ptr %8, align 8
  %40 = getelementptr inbounds nuw %struct.gres_job_state, ptr %39, i32 0, i32 4
  %41 = load i64, ptr %40, align 8
  %42 = icmp uge i64 %38, %41
  br i1 %42, label %43, label %44

43:                                               ; preds = %35
  br label %22, !llvm.loop !20

44:                                               ; preds = %35
  %45 = load ptr, ptr %5, align 8
  %46 = load ptr, ptr %7, align 8
  %47 = call ptr @slurm_list_find_first(ptr noundef %45, ptr noundef @slurm_gres_find_sock_by_job_state, ptr noundef %46)
  store ptr %47, ptr %9, align 8
  %48 = load ptr, ptr %9, align 8
  %49 = icmp ne ptr %48, null
  br i1 %49, label %51, label %50

50:                                               ; preds = %44
  store i8 0, ptr %10, align 1
  br label %65

51:                                               ; preds = %44
  %52 = load ptr, ptr %8, align 8
  %53 = getelementptr inbounds nuw %struct.gres_job_state, ptr %52, i32 0, i32 18
  %54 = load i64, ptr %53, align 8
  %55 = load ptr, ptr %9, align 8
  %56 = getelementptr inbounds nuw %struct.sock_gres, ptr %55, i32 0, i32 8
  %57 = load i64, ptr %56, align 8
  %58 = add i64 %54, %57
  %59 = load ptr, ptr %8, align 8
  %60 = getelementptr inbounds nuw %struct.gres_job_state, ptr %59, i32 0, i32 4
  %61 = load i64, ptr %60, align 8
  %62 = icmp ult i64 %58, %61
  br i1 %62, label %63, label %64

63:                                               ; preds = %51
  store i8 0, ptr %10, align 1
  br label %65

64:                                               ; preds = %51
  br label %22, !llvm.loop !20

65:                                               ; preds = %63, %50, %22
  %66 = load ptr, ptr %6, align 8
  call void @slurm_list_iterator_destroy(ptr noundef %66)
  %67 = load i8, ptr %10, align 1, !range !11, !noundef !12
  %68 = trunc i8 %67 to i1
  store i1 %68, ptr %3, align 1
  store i32 1, ptr %11, align 4
  br label %69

69:                                               ; preds = %65, %18, %14
  call void @llvm.lifetime.end.p0(i64 1, ptr %10) #3
  call void @llvm.lifetime.end.p0(i64 8, ptr %9) #3
  call void @llvm.lifetime.end.p0(i64 8, ptr %8) #3
  call void @llvm.lifetime.end.p0(i64 8, ptr %7) #3
  call void @llvm.lifetime.end.p0(i64 8, ptr %6) #3
  %70 = load i1, ptr %3, align 1
  ret i1 %70
}