; Function Attrs: nounwind uwtable
define dso_local noundef zeroext i1 @gres_sched_sufficient(ptr noundef %0, ptr noundef %1) local_unnamed_addr #0 {
  %.not = icmp eq ptr %0, null
  br i1 %.not, label %25, label %3

3:                                                ; preds = %2
  %.not22 = icmp eq ptr %1, null
  br i1 %.not22, label %25, label %4

4:                                                ; preds = %3
  %5 = tail call ptr @slurm_list_iterator_create(ptr noundef nonnull %0) #4
  %6 = tail call ptr @slurm_list_next(ptr noundef %5) #4
  %.not2327 = icmp eq ptr %6, null
  br i1 %.not2327, label %._crit_edge, label %.lr.ph

.lr.ph:                                           ; preds = %4, %.backedge
  %7 = phi ptr [ %12, %.backedge ], [ %6, %4 ]
  %8 = getelementptr inbounds nuw i8, ptr %7, i64 8
  %9 = load ptr, ptr %8, align 8
  %10 = getelementptr inbounds nuw i8, ptr %9, i64 24
  %11 = load i64, ptr %10, align 8
  %.not24 = icmp eq i64 %11, 0
  br i1 %.not24, label %.backedge, label %13

.backedge:                                        ; preds = %.lr.ph, %13, %18
  %12 = tail call ptr @slurm_list_next(ptr noundef %5) #4
  %.not23 = icmp eq ptr %12, null
  br i1 %.not23, label %._crit_edge, label %.lr.ph, !llvm.loop !17

13:                                               ; preds = %.lr.ph
  %14 = getelementptr inbounds nuw i8, ptr %9, i64 128
  %15 = load i64, ptr %14, align 8
  %.not25 = icmp ult i64 %15, %11
  br i1 %.not25, label %16, label %.backedge

16:                                               ; preds = %13
  %17 = tail call ptr @slurm_list_find_first(ptr noundef nonnull %1, ptr noundef nonnull @slurm_gres_find_sock_by_job_state, ptr noundef nonnull %7) #4
  %.not26 = icmp eq ptr %17, null
  br i1 %.not26, label %._crit_edge, label %18

18:                                               ; preds = %16
  %19 = load i64, ptr %14, align 8
  %20 = getelementptr inbounds nuw i8, ptr %17, i64 64
  %21 = load i64, ptr %20, align 8
  %22 = add i64 %21, %19
  %23 = load i64, ptr %10, align 8
  %24 = icmp ult i64 %22, %23
  br i1 %24, label %._crit_edge, label %.backedge

._crit_edge:                                      ; preds = %.backedge, %16, %18, %4
  %.not23.lcssa = phi i1 [ true, %4 ], [ false, %18 ], [ false, %16 ], [ true, %.backedge ]
  tail call void @slurm_list_iterator_destroy(ptr noundef %5) #4
  br label %25

25:                                               ; preds = %3, %2, %._crit_edge
  %.016 = phi i1 [ %.not23.lcssa, %._crit_edge ], [ true, %2 ], [ false, %3 ]
  ret i1 %.016
}